target datalayout = "e-m:e-p270:32:32-p271:32:32-p272:64:64-i64:64-i128:128-f80:128-n8:16:32:64-S128"
target triple = "x86_64-pc-linux-gnu"

%struct.CodecTags = type { [22 x i8], i32 }

@ff_webm_codec_tags = external constant [0 x %struct.CodecTags], align 4

; Function Attrs: nounwind uwtable
define internal i32 @webm_query_codec(i32 noundef %0, i32 noundef %1) #0 {
  %3 = alloca i32, align 4
  %4 = alloca i32, align 4
  %5 = alloca i32, align 4
  %6 = alloca i32, align 4
  %7 = alloca i32, align 4
  store i32 %0, ptr %4, align 4, !tbaa !30
  store i32 %1, ptr %5, align 4, !tbaa !30
  call void @llvm.lifetime.start.p0(i64 4, ptr %6) #16
  store i32 0, ptr %6, align 4, !tbaa !30
  br label %8

8:                                                ; preds = %26, %2
  %9 = load i32, ptr %6, align 4, !tbaa !30
  %10 = sext i32 %9 to i64
  %11 = getelementptr inbounds [0 x %struct.CodecTags], ptr @ff_webm_codec_tags, i64 0, i64 %10
  %12 = getelementptr inbounds nuw %struct.CodecTags, ptr %11, i32 0, i32 1
  %13 = load i32, ptr %12, align 4, !tbaa !102
  %14 = icmp ne i32 %13, 0
  br i1 %14, label %16, label %15

15:                                               ; preds = %8
  store i32 2, ptr %7, align 4
  br label %29

16:                                               ; preds = %8
  %17 = load i32, ptr %6, align 4, !tbaa !30
  %18 = sext i32 %17 to i64
  %19 = getelementptr inbounds [0 x %struct.CodecTags], ptr @ff_webm_codec_tags, i64 0, i64 %18
  %20 = getelementptr inbounds nuw %struct.CodecTags, ptr %19, i32 0, i32 1
  %21 = load i32, ptr %20, align 4, !tbaa !102
  %22 = load i32, ptr %4, align 4, !tbaa !30
  %23 = icmp eq i32 %21, %22
  br i1 %23, label %24, label %25

24:                                               ; preds = %16
  store i32 1, ptr %3, align 4
  store i32 1, ptr %7, align 4
  br label %29

25:                                               ; preds = %16
  br label %26

26:                                               ; preds = %25
  %27 = load i32, ptr %6, align 4, !tbaa !30
  %28 = add nsw i32 %27, 1
  store i32 %28, ptr %6, align 4, !tbaa !30
  br label %8, !llvm.loop !133

29:                                               ; preds = %24, %15
  call void @llvm.lifetime.end.p0(i64 4, ptr %6) #16
  %30 = load i32, ptr %7, align 4
  switch i32 %30, label %34 [
    i32 2, label %31
    i32 1, label %32
  ]

31:                                               ; preds = %29
  store i32 0, ptr %3, align 4
  br label %32

32:                                               ; preds = %31, %29
  %33 = load i32, ptr %3, align 4
  ret i32 %33

34:                                               ; preds = %29
  unreachable
}