; Function Attrs: nofree norecurse nosync nounwind memory(none) uwtable
define internal range(i32 0, 2) i32 @webm_query_codec(i32 noundef %0, i32 %1) #1 {
  br label %3

3:                                                ; preds = %3, %2
  %indvars.iv = phi i64 [ %indvars.iv.next, %3 ], [ 0, %2 ]
  %4 = getelementptr inbounds nuw [0 x %struct.CodecTags], ptr @ff_webm_codec_tags, i64 0, i64 %indvars.iv, i32 1
  %5 = load i32, ptr %4, align 4, !tbaa !99
  %.not = icmp ne i32 %5, 0
  %6 = icmp ne i32 %5, %0
  %or.cond.not = and i1 %6, %.not
  %indvars.iv.next = add nuw nsw i64 %indvars.iv, 1
  br i1 %or.cond.not, label %3, label %7, !llvm.loop !249

7:                                                ; preds = %3
  %spec.select = zext i1 %.not to i32
  ret i32 %spec.select
}